target datalayout = "e-m:e-p270:32:32-p271:32:32-p272:64:64-i64:64-i128:128-f80:128-n8:16:32:64-S128"
target triple = "x86_64-pc-linux-gnu"

%"struct.p2t::Point" = type { double, double, %"class.std::vector" }
%"class.std::vector" = type { %"struct.std::_Vector_base" }
%"struct.std::_Vector_base" = type { %"struct.std::_Vector_base<p2t::Edge *, std::allocator<p2t::Edge *>>::_Vector_impl" }
%"struct.std::_Vector_base<p2t::Edge *, std::allocator<p2t::Edge *>>::_Vector_impl" = type { %"struct.std::_Vector_base<p2t::Edge *, std::allocator<p2t::Edge *>>::_Vector_impl_data" }
%"struct.std::_Vector_base<p2t::Edge *, std::allocator<p2t::Edge *>>::_Vector_impl_data" = type { ptr, ptr, ptr }

@_ZTISt13runtime_error = external constant ptr
@.str.5 = private unnamed_addr constant [41 x i8] c"FlipScanEdgeEvent - null neighbor across\00", align 1
@.str.6 = private unnamed_addr constant [40 x i8] c"FlipScanEdgeEvent - null opposing point\00", align 1
@.str.7 = private unnamed_addr constant [45 x i8] c"FlipScanEdgeEvent - null on either of points\00", align 1

; Function Attrs: mustprogress nounwind uwtable
define hidden noundef zeroext i1 @_ZN3p2t10InScanAreaERKNS_5PointES2_S2_S2_(ptr noundef nonnull align 8 dereferenceable(40) %0, ptr noundef nonnull align 8 dereferenceable(40) %1, ptr noundef nonnull align 8 dereferenceable(40) %2, ptr noundef nonnull align 8 dereferenceable(40) %3) #2 {
  %5 = alloca i1, align 1
  %6 = alloca ptr, align 8
  %7 = alloca ptr, align 8
  %8 = alloca ptr, align 8
  %9 = alloca ptr, align 8
  %10 = alloca double, align 8
  %11 = alloca i32, align 4
  %12 = alloca double, align 8
  store ptr %0, ptr %6, align 8
  store ptr %1, ptr %7, align 8
  store ptr %2, ptr %8, align 8
  store ptr %3, ptr %9, align 8
  call void @llvm.lifetime.start.p0(i64 8, ptr %10) #14
  %13 = load ptr, ptr %6, align 8
  %14 = getelementptr inbounds nuw %"struct.p2t::Point", ptr %13, i32 0, i32 0
  %15 = load double, ptr %14, align 8
  %16 = load ptr, ptr %7, align 8
  %17 = getelementptr inbounds nuw %"struct.p2t::Point", ptr %16, i32 0, i32 0
  %18 = load double, ptr %17, align 8
  %19 = fsub double %15, %18
  %20 = load ptr, ptr %9, align 8
  %21 = getelementptr inbounds nuw %"struct.p2t::Point", ptr %20, i32 0, i32 1
  %22 = load double, ptr %21, align 8
  %23 = load ptr, ptr %7, align 8
  %24 = getelementptr inbounds nuw %"struct.p2t::Point", ptr %23, i32 0, i32 1
  %25 = load double, ptr %24, align 8
  %26 = fsub double %22, %25
  %27 = load ptr, ptr %9, align 8
  %28 = getelementptr inbounds nuw %"struct.p2t::Point", ptr %27, i32 0, i32 0
  %29 = load double, ptr %28, align 8
  %30 = load ptr, ptr %7, align 8
  %31 = getelementptr inbounds nuw %"struct.p2t::Point", ptr %30, i32 0, i32 0
  %32 = load double, ptr %31, align 8
  %33 = fsub double %29, %32
  %34 = load ptr, ptr %6, align 8
  %35 = getelementptr inbounds nuw %"struct.p2t::Point", ptr %34, i32 0, i32 1
  %36 = load double, ptr %35, align 8
  %37 = load ptr, ptr %7, align 8
  %38 = getelementptr inbounds nuw %"struct.p2t::Point", ptr %37, i32 0, i32 1
  %39 = load double, ptr %38, align 8
  %40 = fsub double %36, %39
  %41 = fmul double %33, %40
  %42 = fneg double %41
  %43 = call double @llvm.fmuladd.f64(double %19, double %26, double %42)
  store double %43, ptr %10, align 8
  %44 = load double, ptr %10, align 8
  %45 = fcmp oge double %44, 0xBD719799812DEA11
  br i1 %45, label %46, label %47

46:                                               ; preds = %4
  store i1 false, ptr %5, align 1
  store i32 1, ptr %11, align 4
  br label %84

47:                                               ; preds = %4
  call void @llvm.lifetime.start.p0(i64 8, ptr %12) #14
  %48 = load ptr, ptr %6, align 8
  %49 = getelementptr inbounds nuw %"struct.p2t::Point", ptr %48, i32 0, i32 0
  %50 = load double, ptr %49, align 8
  %51 = load ptr, ptr %8, align 8
  %52 = getelementptr inbounds nuw %"struct.p2t::Point", ptr %51, i32 0, i32 0
  %53 = load double, ptr %52, align 8
  %54 = fsub double %50, %53
  %55 = load ptr, ptr %9, align 8
  %56 = getelementptr inbounds nuw %"struct.p2t::Point", ptr %55, i32 0, i32 1
  %57 = load double, ptr %56, align 8
  %58 = load ptr, ptr %8, align 8
  %59 = getelementptr inbounds nuw %"struct.p2t::Point", ptr %58, i32 0, i32 1
  %60 = load double, ptr %59, align 8
  %61 = fsub double %57, %60
  %62 = load ptr, ptr %9, align 8
  %63 = getelementptr inbounds nuw %"struct.p2t::Point", ptr %62, i32 0, i32 0
  %64 = load double, ptr %63, align 8
  %65 = load ptr, ptr %8, align 8
  %66 = getelementptr inbounds nuw %"struct.p2t::Point", ptr %65, i32 0, i32 0
  %67 = load double, ptr %66, align 8
  %68 = fsub double %64, %67
  %69 = load ptr, ptr %6, align 8
  %70 = getelementptr inbounds nuw %"struct.p2t::Point", ptr %69, i32 0, i32 1
  %71 = load double, ptr %70, align 8
  %72 = load ptr, ptr %8, align 8
  %73 = getelementptr inbounds nuw %"struct.p2t::Point", ptr %72, i32 0, i32 1
  %74 = load double, ptr %73, align 8
  %75 = fsub double %71, %74
  %76 = fmul double %68, %75
  %77 = fneg double %76
  %78 = call double @llvm.fmuladd.f64(double %54, double %61, double %77)
  store double %78, ptr %12, align 8
  %79 = load double, ptr %12, align 8
  %80 = fcmp ole double %79, 0x3D719799812DEA11
  br i1 %80, label %81, label %82

81:                                               ; preds = %47
  store i1 false, ptr %5, align 1
  store i32 1, ptr %11, align 4
  br label %83

82:                                               ; preds = %47
  store i1 true, ptr %5, align 1
  store i32 1, ptr %11, align 4
  br label %83

83:                                               ; preds = %82, %81
  call void @llvm.lifetime.end.p0(i64 8, ptr %12) #14
  br label %84

84:                                               ; preds = %83, %46
  call void @llvm.lifetime.end.p0(i64 8, ptr %10) #14
  %85 = load i1, ptr %5, align 1
  ret i1 %85
}

; Function Attrs: mustprogress uwtable
define hidden void @_ZN3p2t5Sweep17FlipScanEdgeEventERNS_12SweepContextERNS_5PointES4_RNS_8TriangleES6_S4_(ptr noundef nonnull align 8 dereferenceable(24) %0, ptr noundef nonnull align 8 dereferenceable(200) %1, ptr noundef nonnull align 8 dereferenceable(40) %2, ptr noundef nonnull align 8 dereferenceable(40) %3, ptr noundef nonnull align 8 dereferenceable(57) %4, ptr noundef nonnull align 8 dereferenceable(57) %5, ptr noundef nonnull align 8 dereferenceable(40) %6) #0 align 2 personality ptr @__gxx_personality_v0 {
  %8 = alloca ptr, align 8
  %9 = alloca ptr, align 8
  %10 = alloca ptr, align 8
  %11 = alloca ptr, align 8
  %12 = alloca ptr, align 8
  %13 = alloca ptr, align 8
  %14 = alloca ptr, align 8
  %15 = alloca ptr, align 8
  %16 = alloca ptr, align 8
  %17 = alloca i32, align 4
  %18 = alloca ptr, align 8
  %19 = alloca ptr, align 8
  %20 = alloca ptr, align 8
  %21 = alloca ptr, align 8
  %22 = alloca ptr, align 8
  %23 = alloca ptr, align 8
  store ptr %0, ptr %8, align 8
  store ptr %1, ptr %9, align 8
  store ptr %2, ptr %10, align 8
  store ptr %3, ptr %11, align 8
  store ptr %4, ptr %12, align 8
  store ptr %5, ptr %13, align 8
  store ptr %6, ptr %14, align 8
  %24 = load ptr, ptr %8, align 8
  call void @llvm.lifetime.start.p0(i64 8, ptr %15) #14
  %25 = load ptr, ptr %13, align 8
  %26 = load ptr, ptr %14, align 8
  %27 = call noundef ptr @_ZN3p2t8Triangle14NeighborAcrossERKNS_5PointE(ptr noundef nonnull align 8 dereferenceable(57) %25, ptr noundef nonnull align 8 dereferenceable(40) %26)
  store ptr %27, ptr %15, align 8
  %28 = load ptr, ptr %15, align 8
  %29 = icmp eq ptr %28, null
  br i1 %29, label %30, label %37

30:                                               ; preds = %7
  %31 = call ptr @__cxa_allocate_exception(i64 16) #14
  invoke void @_ZNSt13runtime_errorC1EPKc(ptr noundef nonnull align 8 dereferenceable(16) %31, ptr noundef @.str.5)
          to label %32 unwind label %33

32:                                               ; preds = %30
  call void @__cxa_throw(ptr %31, ptr @_ZTISt13runtime_error, ptr @_ZNSt13runtime_errorD1Ev) #16
  unreachable

33:                                               ; preds = %30
  %34 = landingpad { ptr, i32 }
          cleanup
  %35 = extractvalue { ptr, i32 } %34, 0
  store ptr %35, ptr %16, align 8
  %36 = extractvalue { ptr, i32 } %34, 1
  store i32 %36, ptr %17, align 4
  call void @__cxa_free_exception(ptr %31) #14
  br label %98

37:                                               ; preds = %7
  call void @llvm.lifetime.start.p0(i64 8, ptr %18) #14
  %38 = load ptr, ptr %15, align 8
  %39 = load ptr, ptr %13, align 8
  %40 = load ptr, ptr %14, align 8
  %41 = call noundef ptr @_ZN3p2t8Triangle13OppositePointERS0_RKNS_5PointE(ptr noundef nonnull align 8 dereferenceable(57) %38, ptr noundef nonnull align 8 dereferenceable(57) %39, ptr noundef nonnull align 8 dereferenceable(40) %40)
  store ptr %41, ptr %18, align 8
  %42 = load ptr, ptr %18, align 8
  %43 = icmp eq ptr %42, null
  br i1 %43, label %44, label %51

44:                                               ; preds = %37
  %45 = call ptr @__cxa_allocate_exception(i64 16) #14
  invoke void @_ZNSt13runtime_errorC1EPKc(ptr noundef nonnull align 8 dereferenceable(16) %45, ptr noundef @.str.6)
          to label %46 unwind label %47

46:                                               ; preds = %44
  call void @__cxa_throw(ptr %45, ptr @_ZTISt13runtime_error, ptr @_ZNSt13runtime_errorD1Ev) #16
  unreachable

47:                                               ; preds = %44
  %48 = landingpad { ptr, i32 }
          cleanup
  %49 = extractvalue { ptr, i32 } %48, 0
  store ptr %49, ptr %16, align 8
  %50 = extractvalue { ptr, i32 } %48, 1
  store i32 %50, ptr %17, align 4
  call void @__cxa_free_exception(ptr %45) #14
  br label %97

51:                                               ; preds = %37
  call void @llvm.lifetime.start.p0(i64 8, ptr %19) #14
  %52 = load ptr, ptr %12, align 8
  %53 = load ptr, ptr %11, align 8
  %54 = call noundef ptr @_ZN3p2t8Triangle8PointCCWERKNS_5PointE(ptr noundef nonnull align 8 dereferenceable(57) %52, ptr noundef nonnull align 8 dereferenceable(40) %53)
  store ptr %54, ptr %19, align 8
  call void @llvm.lifetime.start.p0(i64 8, ptr %20) #14
  %55 = load ptr, ptr %12, align 8
  %56 = load ptr, ptr %11, align 8
  %57 = call noundef ptr @_ZN3p2t8Triangle7PointCWERKNS_5PointE(ptr noundef nonnull align 8 dereferenceable(57) %55, ptr noundef nonnull align 8 dereferenceable(40) %56)
  store ptr %57, ptr %20, align 8
  %58 = load ptr, ptr %19, align 8
  %59 = icmp eq ptr %58, null
  br i1 %59, label %63, label %60

60:                                               ; preds = %51
  %61 = load ptr, ptr %20, align 8
  %62 = icmp eq ptr %61, null
  br i1 %62, label %63, label %70

63:                                               ; preds = %60, %51
  %64 = call ptr @__cxa_allocate_exception(i64 16) #14
  invoke void @_ZNSt13runtime_errorC1EPKc(ptr noundef nonnull align 8 dereferenceable(16) %64, ptr noundef @.str.7)
          to label %65 unwind label %66

65:                                               ; preds = %63
  call void @__cxa_throw(ptr %64, ptr @_ZTISt13runtime_error, ptr @_ZNSt13runtime_errorD1Ev) #16
  unreachable

66:                                               ; preds = %63
  %67 = landingpad { ptr, i32 }
          cleanup
  %68 = extractvalue { ptr, i32 } %67, 0
  store ptr %68, ptr %16, align 8
  %69 = extractvalue { ptr, i32 } %67, 1
  store i32 %69, ptr %17, align 4
  call void @__cxa_free_exception(ptr %64) #14
  call void @llvm.lifetime.end.p0(i64 8, ptr %20) #14
  call void @llvm.lifetime.end.p0(i64 8, ptr %19) #14
  br label %97

70:                                               ; preds = %60
  call void @llvm.lifetime.start.p0(i64 8, ptr %21) #14
  %71 = load ptr, ptr %15, align 8
  store ptr %71, ptr %21, align 8
  call void @llvm.lifetime.start.p0(i64 8, ptr %22) #14
  %72 = load ptr, ptr %18, align 8
  store ptr %72, ptr %22, align 8
  %73 = load ptr, ptr %11, align 8
  %74 = load ptr, ptr %19, align 8
  %75 = load ptr, ptr %20, align 8
  %76 = load ptr, ptr %22, align 8
  %77 = call noundef zeroext i1 @_ZN3p2t10InScanAreaERKNS_5PointES2_S2_S2_(ptr noundef nonnull align 8 dereferenceable(40) %73, ptr noundef nonnull align 8 dereferenceable(40) %74, ptr noundef nonnull align 8 dereferenceable(40) %75, ptr noundef nonnull align 8 dereferenceable(40) %76)
  br i1 %77, label %78, label %84

78:                                               ; preds = %70
  %79 = load ptr, ptr %9, align 8
  %80 = load ptr, ptr %11, align 8
  %81 = load ptr, ptr %22, align 8
  %82 = load ptr, ptr %21, align 8
  %83 = load ptr, ptr %22, align 8
  call void @_ZN3p2t5Sweep13FlipEdgeEventERNS_12SweepContextERNS_5PointES4_PNS_8TriangleES4_(ptr noundef nonnull align 8 dereferenceable(24) %24, ptr noundef nonnull align 8 dereferenceable(200) %79, ptr noundef nonnull align 8 dereferenceable(40) %80, ptr noundef nonnull align 8 dereferenceable(40) %81, ptr noundef %82, ptr noundef nonnull align 8 dereferenceable(40) %83)
  br label %96

84:                                               ; preds = %70
  call void @llvm.lifetime.start.p0(i64 8, ptr %23) #14
  %85 = load ptr, ptr %10, align 8
  %86 = load ptr, ptr %11, align 8
  %87 = load ptr, ptr %21, align 8
  %88 = load ptr, ptr %22, align 8
  %89 = call noundef nonnull align 8 dereferenceable(40) ptr @_ZN3p2t5Sweep13NextFlipPointERNS_5PointES2_RNS_8TriangleES2_(ptr noundef nonnull align 8 dereferenceable(24) %24, ptr noundef nonnull align 8 dereferenceable(40) %85, ptr noundef nonnull align 8 dereferenceable(40) %86, ptr noundef nonnull align 8 dereferenceable(57) %87, ptr noundef nonnull align 8 dereferenceable(40) %88)
  store ptr %89, ptr %23, align 8
  %90 = load ptr, ptr %9, align 8
  %91 = load ptr, ptr %10, align 8
  %92 = load ptr, ptr %11, align 8
  %93 = load ptr, ptr %12, align 8
  %94 = load ptr, ptr %21, align 8
  %95 = load ptr, ptr %23, align 8
  call void @_ZN3p2t5Sweep17FlipScanEdgeEventERNS_12SweepContextERNS_5PointES4_RNS_8TriangleES6_S4_(ptr noundef nonnull align 8 dereferenceable(24) %24, ptr noundef nonnull align 8 dereferenceable(200) %90, ptr noundef nonnull align 8 dereferenceable(40) %91, ptr noundef nonnull align 8 dereferenceable(40) %92, ptr noundef nonnull align 8 dereferenceable(57) %93, ptr noundef nonnull align 8 dereferenceable(57) %94, ptr noundef nonnull align 8 dereferenceable(40) %95)
  call void @llvm.lifetime.end.p0(i64 8, ptr %23) #14
  br label %96

96:                                               ; preds = %84, %78
  call void @llvm.lifetime.end.p0(i64 8, ptr %22) #14
  call void @llvm.lifetime.end.p0(i64 8, ptr %21) #14
  call void @llvm.lifetime.end.p0(i64 8, ptr %20) #14
  call void @llvm.lifetime.end.p0(i64 8, ptr %19) #14
  call void @llvm.lifetime.end.p0(i64 8, ptr %18) #14
  call void @llvm.lifetime.end.p0(i64 8, ptr %15) #14
  ret void

97:                                               ; preds = %66, %47
  call void @llvm.lifetime.end.p0(i64 8, ptr %18) #14
  br label %98

98:                                               ; preds = %97, %33
  call void @llvm.lifetime.end.p0(i64 8, ptr %15) #14
  br label %99

99:                                               ; preds = %98
  %100 = load ptr, ptr %16, align 8
  %101 = load i32, ptr %17, align 4
  %102 = insertvalue { ptr, i32 } poison, ptr %100, 0
  %103 = insertvalue { ptr, i32 } %102, i32 %101, 1
  resume { ptr, i32 } %103
}