; Function Attrs: mustprogress uwtable
define hidden void @_ZN3p2t5Sweep17FlipScanEdgeEventERNS_12SweepContextERNS_5PointES4_RNS_8TriangleES6_S4_(ptr noundef nonnull align 8 dereferenceable(24) %0, ptr noundef nonnull align 8 dereferenceable(200) %1, ptr noundef nonnull readonly align 8 captures(none) dereferenceable(40) %2, ptr noundef nonnull align 8 dereferenceable(40) %3, ptr noundef nonnull align 8 dereferenceable(57) %4, ptr noundef nonnull align 8 dereferenceable(57) %5, ptr noundef nonnull align 8 dereferenceable(40) %6) local_unnamed_addr #2 align 2 personality ptr @__gxx_personality_v0 {
  %8 = tail call noundef ptr @_ZN3p2t8Triangle14NeighborAcrossERKNS_5PointE(ptr noundef nonnull align 8 dereferenceable(57) %5, ptr noundef nonnull align 8 dereferenceable(40) %6)
  %9 = icmp eq ptr %8, null
  br i1 %9, label %tailrecurse._crit_edge, label %.lr.ph

.lr.ph:                                           ; preds = %7
  %10 = getelementptr inbounds nuw i8, ptr %3, i64 8
  br label %15

tailrecurse._crit_edge:                           ; preds = %_ZN3p2t10InScanAreaERKNS_5PointES2_S2_S2_.exit.thread, %7
  %11 = tail call ptr @__cxa_allocate_exception(i64 16) #20
  invoke void @_ZNSt13runtime_errorC1EPKc(ptr noundef nonnull align 8 dereferenceable(16) %11, ptr noundef nonnull @.str.5)
          to label %12 unwind label %13

12:                                               ; preds = %tailrecurse._crit_edge
  tail call void @__cxa_throw(ptr nonnull %11, ptr nonnull @_ZTISt13runtime_error, ptr nonnull @_ZNSt13runtime_errorD1Ev) #21
  unreachable

13:                                               ; preds = %tailrecurse._crit_edge
  %14 = landingpad { ptr, i32 }
          cleanup
  br label %66

15:                                               ; preds = %.lr.ph, %_ZN3p2t10InScanAreaERKNS_5PointES2_S2_S2_.exit.thread
  %16 = phi ptr [ %8, %.lr.ph ], [ %64, %_ZN3p2t10InScanAreaERKNS_5PointES2_S2_S2_.exit.thread ]
  %.tr5260 = phi ptr [ %6, %.lr.ph ], [ %63, %_ZN3p2t10InScanAreaERKNS_5PointES2_S2_S2_.exit.thread ]
  %.tr5159 = phi ptr [ %5, %.lr.ph ], [ %16, %_ZN3p2t10InScanAreaERKNS_5PointES2_S2_S2_.exit.thread ]
  %17 = tail call noundef ptr @_ZN3p2t8Triangle13OppositePointERS0_RKNS_5PointE(ptr noundef nonnull align 8 dereferenceable(57) %16, ptr noundef nonnull align 8 dereferenceable(57) %.tr5159, ptr noundef nonnull align 8 dereferenceable(40) %.tr5260)
  %18 = icmp eq ptr %17, null
  br i1 %18, label %19, label %24

19:                                               ; preds = %15
  %20 = tail call ptr @__cxa_allocate_exception(i64 16) #20
  invoke void @_ZNSt13runtime_errorC1EPKc(ptr noundef nonnull align 8 dereferenceable(16) %20, ptr noundef nonnull @.str.6)
          to label %21 unwind label %22

21:                                               ; preds = %19
  tail call void @__cxa_throw(ptr nonnull %20, ptr nonnull @_ZTISt13runtime_error, ptr nonnull @_ZNSt13runtime_errorD1Ev) #21
  unreachable

22:                                               ; preds = %19
  %23 = landingpad { ptr, i32 }
          cleanup
  br label %66

24:                                               ; preds = %15
  %25 = tail call noundef ptr @_ZN3p2t8Triangle8PointCCWERKNS_5PointE(ptr noundef nonnull align 8 dereferenceable(57) %4, ptr noundef nonnull align 8 dereferenceable(40) %3)
  %26 = tail call noundef ptr @_ZN3p2t8Triangle7PointCWERKNS_5PointE(ptr noundef nonnull align 8 dereferenceable(57) %4, ptr noundef nonnull align 8 dereferenceable(40) %3)
  %27 = icmp eq ptr %25, null
  %28 = icmp eq ptr %26, null
  %or.cond = or i1 %27, %28
  br i1 %or.cond, label %29, label %34

29:                                               ; preds = %24
  %30 = tail call ptr @__cxa_allocate_exception(i64 16) #20
  invoke void @_ZNSt13runtime_errorC1EPKc(ptr noundef nonnull align 8 dereferenceable(16) %30, ptr noundef nonnull @.str.7)
          to label %31 unwind label %32

31:                                               ; preds = %29
  tail call void @__cxa_throw(ptr nonnull %30, ptr nonnull @_ZTISt13runtime_error, ptr nonnull @_ZNSt13runtime_errorD1Ev) #21
  unreachable

32:                                               ; preds = %29
  %33 = landingpad { ptr, i32 }
          cleanup
  br label %66

34:                                               ; preds = %24
  %35 = load double, ptr %3, align 8
  %36 = load double, ptr %25, align 8
  %37 = fsub double %35, %36
  %38 = getelementptr inbounds nuw i8, ptr %17, i64 8
  %39 = load double, ptr %38, align 8
  %40 = getelementptr inbounds nuw i8, ptr %25, i64 8
  %41 = load double, ptr %40, align 8
  %42 = fsub double %39, %41
  %43 = load double, ptr %17, align 8
  %44 = fsub double %43, %36
  %45 = load double, ptr %10, align 8
  %46 = fsub double %45, %41
  %47 = fneg double %46
  %48 = fmul double %44, %47
  %49 = tail call double @llvm.fmuladd.f64(double %37, double %42, double %48)
  %50 = fcmp ult double %49, 0xBD719799812DEA11
  br i1 %50, label %_ZN3p2t10InScanAreaERKNS_5PointES2_S2_S2_.exit, label %_ZN3p2t10InScanAreaERKNS_5PointES2_S2_S2_.exit.thread

_ZN3p2t10InScanAreaERKNS_5PointES2_S2_S2_.exit:   ; preds = %34
  %51 = load double, ptr %26, align 8
  %52 = fsub double %35, %51
  %53 = getelementptr inbounds nuw i8, ptr %26, i64 8
  %54 = load double, ptr %53, align 8
  %55 = fsub double %39, %54
  %56 = fsub double %43, %51
  %57 = fsub double %45, %54
  %58 = fneg double %57
  %59 = fmul double %56, %58
  %60 = tail call double @llvm.fmuladd.f64(double %52, double %55, double %59)
  %61 = fcmp ugt double %60, 0x3D719799812DEA11
  br i1 %61, label %62, label %_ZN3p2t10InScanAreaERKNS_5PointES2_S2_S2_.exit.thread

62:                                               ; preds = %_ZN3p2t10InScanAreaERKNS_5PointES2_S2_S2_.exit
  tail call void @_ZN3p2t5Sweep13FlipEdgeEventERNS_12SweepContextERNS_5PointES4_PNS_8TriangleES4_(ptr noundef nonnull align 8 dereferenceable(24) %0, ptr noundef nonnull align 8 dereferenceable(200) %1, ptr noundef nonnull align 8 dereferenceable(40) %3, ptr noundef nonnull align 8 dereferenceable(40) %17, ptr noundef nonnull %16, ptr noundef nonnull align 8 dereferenceable(40) %17)
  ret void

_ZN3p2t10InScanAreaERKNS_5PointES2_S2_S2_.exit.thread: ; preds = %34, %_ZN3p2t10InScanAreaERKNS_5PointES2_S2_S2_.exit
  %63 = tail call noundef nonnull align 8 dereferenceable(40) ptr @_ZN3p2t5Sweep13NextFlipPointERNS_5PointES2_RNS_8TriangleES2_(ptr nonnull align 8 poison, ptr noundef nonnull align 8 dereferenceable(40) %2, ptr noundef nonnull align 8 dereferenceable(40) %3, ptr noundef nonnull align 8 dereferenceable(57) %16, ptr noundef nonnull align 8 dereferenceable(40) %17)
  %64 = tail call noundef ptr @_ZN3p2t8Triangle14NeighborAcrossERKNS_5PointE(ptr noundef nonnull align 8 dereferenceable(57) %16, ptr noundef nonnull align 8 dereferenceable(40) %63)
  %65 = icmp eq ptr %64, null
  br i1 %65, label %tailrecurse._crit_edge, label %15

66:                                               ; preds = %22, %32, %13
  %.sink = phi ptr [ %20, %22 ], [ %30, %32 ], [ %11, %13 ]
  %.pn44 = phi { ptr, i32 } [ %23, %22 ], [ %33, %32 ], [ %14, %13 ]
  tail call void @__cxa_free_exception(ptr nonnull %.sink) #20
  resume { ptr, i32 } %.pn44
}